; Function Attrs: nounwind uwtable
define ptr @l_Lean_Elab_Term_expandMatchExpr(ptr noundef %0, ptr noundef %1, ptr noundef %2) #0 {
  %4 = load ptr, ptr @l_Lean_Elab_Term_expandMatchExpr___closed__2, align 8, !tbaa !4
  %5 = ptrtoint ptr %0 to i64
  %6 = and i64 %5, 1
  %.not = icmp eq i64 %6, 0
  br i1 %.not, label %7, label %lean_inc.exit

7:                                                ; preds = %3
  %.val.i = load i32, ptr %0, align 4, !tbaa !8
  %8 = icmp sgt i32 %.val.i, 0
  br i1 %8, label %9, label %11, !prof !11

9:                                                ; preds = %7
  %10 = add nuw i32 %.val.i, 1
  store i32 %10, ptr %0, align 4, !tbaa !8
  br label %lean_inc.exit

11:                                               ; preds = %7
  %.not.i41 = icmp eq i32 %.val.i, 0
  br i1 %.not.i41, label %lean_inc.exit, label %12

12:                                               ; preds = %11
  tail call void @lean_inc_ref_cold(ptr noundef nonnull %0) #6
  br label %lean_inc.exit

lean_inc.exit:                                    ; preds = %12, %11, %9, %3
  %13 = tail call zeroext i8 @l_Lean_Syntax_isOfKind(ptr noundef %0, ptr noundef %4) #6
  %14 = icmp eq i8 %13, 0
  br i1 %14, label %15, label %38

15:                                               ; preds = %lean_inc.exit
  %16 = ptrtoint ptr %1 to i64
  %17 = and i64 %16, 1
  %.not44 = icmp eq i64 %17, 0
  br i1 %.not44, label %18, label %lean_dec.exit32

18:                                               ; preds = %15
  %19 = load i32, ptr %1, align 4, !tbaa !8
  %20 = icmp sgt i32 %19, 1
  br i1 %20, label %21, label %23, !prof !11

21:                                               ; preds = %18
  %22 = add nsw i32 %19, -1
  store i32 %22, ptr %1, align 4, !tbaa !8
  br label %lean_dec.exit32

23:                                               ; preds = %18
  %.not.i = icmp eq i32 %19, 0
  br i1 %.not.i, label %lean_dec.exit32, label %24

24:                                               ; preds = %23
  tail call void @lean_dec_ref_cold(ptr noundef nonnull %1) #6
  br label %lean_dec.exit32

lean_dec.exit32:                                  ; preds = %24, %23, %21, %15
  br i1 %.not, label %25, label %lean_dec.exit31

25:                                               ; preds = %lean_dec.exit32
  %26 = load i32, ptr %0, align 4, !tbaa !8
  %27 = icmp sgt i32 %26, 1
  br i1 %27, label %28, label %30, !prof !11

28:                                               ; preds = %25
  %29 = add nsw i32 %26, -1
  store i32 %29, ptr %0, align 4, !tbaa !8
  br label %lean_dec.exit31

30:                                               ; preds = %25
  %.not.i33 = icmp eq i32 %26, 0
  br i1 %.not.i33, label %lean_dec.exit31, label %31

31:                                               ; preds = %30
  tail call void @lean_dec_ref_cold(ptr noundef nonnull %0) #6
  br label %lean_dec.exit31

lean_dec.exit31:                                  ; preds = %31, %30, %28, %lean_dec.exit32
  tail call void @lean_inc_heartbeat() #6
  %32 = tail call noalias ptr @mi_malloc_small(i64 noundef 24) #6
  %33 = icmp eq ptr %32, null
  br i1 %33, label %34, label %lean_alloc_ctor.exit

34:                                               ; preds = %lean_dec.exit31
  tail call void @lean_internal_panic_out_of_memory() #7
  unreachable

lean_alloc_ctor.exit:                             ; preds = %lean_dec.exit31
  %35 = getelementptr inbounds nuw i8, ptr %32, i64 4
  store i32 1, ptr %32, align 4, !tbaa !8
  store i32 16908312, ptr %35, align 4
  %36 = getelementptr inbounds nuw i8, ptr %32, i64 8
  store ptr inttoptr (i64 3 to ptr), ptr %36, align 8, !tbaa !4
  %37 = getelementptr inbounds nuw i8, ptr %32, i64 16
  store ptr %2, ptr %37, align 8, !tbaa !4
  br label %70

38:                                               ; preds = %lean_inc.exit
  %39 = tail call ptr @l_Lean_Syntax_getArg(ptr noundef %0, ptr noundef nonnull inttoptr (i64 3 to ptr)) #6
  %40 = tail call ptr @l_Lean_Syntax_getArg(ptr noundef %0, ptr noundef nonnull inttoptr (i64 7 to ptr)) #6
  br i1 %.not, label %41, label %lean_dec.exit30

41:                                               ; preds = %38
  %42 = load i32, ptr %0, align 4, !tbaa !8
  %43 = icmp sgt i32 %42, 1
  br i1 %43, label %44, label %46, !prof !11

44:                                               ; preds = %41
  %45 = add nsw i32 %42, -1
  store i32 %45, ptr %0, align 4, !tbaa !8
  br label %lean_dec.exit30

46:                                               ; preds = %41
  %.not.i35 = icmp eq i32 %42, 0
  br i1 %.not.i35, label %lean_dec.exit30, label %47

47:                                               ; preds = %46
  tail call void @lean_dec_ref_cold(ptr noundef nonnull %0) #6
  br label %lean_dec.exit30

lean_dec.exit30:                                  ; preds = %47, %46, %44, %38
  %48 = tail call ptr @l_Lean_Syntax_getArg(ptr noundef %40, ptr noundef nonnull inttoptr (i64 1 to ptr)) #6
  %49 = tail call ptr @l_Lean_Syntax_getArgs(ptr noundef %48) #6
  %50 = ptrtoint ptr %48 to i64
  %51 = and i64 %50, 1
  %.not42 = icmp eq i64 %51, 0
  br i1 %.not42, label %52, label %lean_dec.exit29

52:                                               ; preds = %lean_dec.exit30
  %53 = load i32, ptr %48, align 4, !tbaa !8
  %54 = icmp sgt i32 %53, 1
  br i1 %54, label %55, label %57, !prof !11

55:                                               ; preds = %52
  %56 = add nsw i32 %53, -1
  store i32 %56, ptr %48, align 4, !tbaa !8
  br label %lean_dec.exit29

57:                                               ; preds = %52
  %.not.i37 = icmp eq i32 %53, 0
  br i1 %.not.i37, label %lean_dec.exit29, label %58

58:                                               ; preds = %57
  tail call void @lean_dec_ref_cold(ptr noundef nonnull %48) #6
  br label %lean_dec.exit29

lean_dec.exit29:                                  ; preds = %58, %57, %55, %lean_dec.exit30
  %59 = tail call ptr @l_Lean_Syntax_getArg(ptr noundef %40, ptr noundef nonnull inttoptr (i64 3 to ptr)) #6
  %60 = ptrtoint ptr %40 to i64
  %61 = and i64 %60, 1
  %.not43 = icmp eq i64 %61, 0
  br i1 %.not43, label %62, label %lean_dec.exit

62:                                               ; preds = %lean_dec.exit29
  %63 = load i32, ptr %40, align 4, !tbaa !8
  %64 = icmp sgt i32 %63, 1
  br i1 %64, label %65, label %67, !prof !11

65:                                               ; preds = %62
  %66 = add nsw i32 %63, -1
  store i32 %66, ptr %40, align 4, !tbaa !8
  br label %lean_dec.exit

67:                                               ; preds = %62
  %.not.i39 = icmp eq i32 %63, 0
  br i1 %.not.i39, label %lean_dec.exit, label %68

68:                                               ; preds = %67
  tail call void @lean_dec_ref_cold(ptr noundef nonnull %40) #6
  br label %lean_dec.exit

lean_dec.exit:                                    ; preds = %68, %67, %65, %lean_dec.exit29
  %69 = tail call ptr @l_Lean_Elab_Term_MatchExpr_main(ptr noundef %39, ptr noundef %49, ptr noundef %59, ptr noundef %1, ptr noundef %2)
  br label %70

70:                                               ; preds = %lean_dec.exit, %lean_alloc_ctor.exit
  %.0 = phi ptr [ %32, %lean_alloc_ctor.exit ], [ %69, %lean_dec.exit ]
  ret ptr %.0
}